; Function Attrs: mustprogress nofree norecurse nosync nounwind willreturn memory(none) uwtable
define internal noundef zeroext i1 @_ZN4llvm6objectL14supportsMips64Em(i64 noundef %0) #1 {
  switch i64 %0, label %2 [
    i64 2, label %3
    i64 18, label %3
    i64 41, label %3
    i64 248, label %3
  ]

2:                                                ; preds = %1
  br label %3

3:                                                ; preds = %1, %1, %1, %1, %2
  %.0 = phi i1 [ false, %2 ], [ true, %1 ], [ true, %1 ], [ true, %1 ], [ true, %1 ]
  ret i1 %.0
}